target datalayout = "e-m:e-p270:32:32-p271:32:32-p272:64:64-i64:64-i128:128-f80:128-n8:16:32:64-S128"
target triple = "x86_64-pc-linux-gnu"

%struct._object = type { %union.anon, ptr }
%union.anon = type { i64 }
%struct.PyVarObject = type { %struct._object, i64 }
%struct.anon = type { i32, i32 }
%struct.ElementObject = type { %struct._object, ptr, ptr, ptr, ptr, ptr }
%struct.ElementObjectExtra = type { ptr, i64, i64, ptr, [4 x ptr] }
%struct.PyListObject = type { %struct.PyVarObject, ptr, i64 }

@.str.5 = private unnamed_addr constant [7 x i8] c"attrib\00", align 1
@.str.24 = private unnamed_addr constant [5 x i8] c"tail\00", align 1
@.str.25 = private unnamed_addr constant [5 x i8] c"text\00", align 1
@.str.84 = private unnamed_addr constant [4 x i8] c"tag\00", align 1
@.str.88 = private unnamed_addr constant [13 x i8] c"{sOsNsNsOsO}\00", align 1
@.str.89 = private unnamed_addr constant [10 x i8] c"_children\00", align 1

; Function Attrs: alwaysinline nounwind uwtable
define internal i32 @_Py_IsImmortal(ptr noundef %0) #4 {
  %2 = alloca ptr, align 8
  store ptr %0, ptr %2, align 8, !tbaa !3
  %3 = load ptr, ptr %2, align 8, !tbaa !3
  %4 = getelementptr inbounds nuw %struct._object, ptr %3, i32 0, i32 0
  %5 = getelementptr inbounds nuw %struct.anon, ptr %4, i32 0, i32 0
  %6 = load i32, ptr %5, align 8, !tbaa !32
  %7 = icmp slt i32 %6, 0
  %8 = zext i1 %7 to i32
  ret i32 %8
}

; Function Attrs: alwaysinline nounwind uwtable
define internal void @Py_INCREF(ptr noundef %0) #4 {
  %2 = alloca ptr, align 8
  %3 = alloca i32, align 4
  %4 = alloca i32, align 4
  store ptr %0, ptr %2, align 8, !tbaa !3
  call void @llvm.lifetime.start.p0(i64 4, ptr %3) #8
  %5 = load ptr, ptr %2, align 8, !tbaa !3
  %6 = getelementptr inbounds nuw %struct._object, ptr %5, i32 0, i32 0
  %7 = getelementptr inbounds nuw %struct.anon, ptr %6, i32 0, i32 0
  %8 = load i32, ptr %7, align 8, !tbaa !32
  store i32 %8, ptr %3, align 4, !tbaa !13
  %9 = load i32, ptr %3, align 4, !tbaa !13
  %10 = icmp slt i32 %9, 0
  br i1 %10, label %11, label %12

11:                                               ; preds = %1
  store i32 1, ptr %4, align 4
  br label %18

12:                                               ; preds = %1
  %13 = load i32, ptr %3, align 4, !tbaa !13
  %14 = add i32 %13, 1
  %15 = load ptr, ptr %2, align 8, !tbaa !3
  %16 = getelementptr inbounds nuw %struct._object, ptr %15, i32 0, i32 0
  %17 = getelementptr inbounds nuw %struct.anon, ptr %16, i32 0, i32 0
  store i32 %14, ptr %17, align 8, !tbaa !32
  store i32 0, ptr %4, align 4
  br label %18

18:                                               ; preds = %12, %11
  call void @llvm.lifetime.end.p0(i64 4, ptr %3) #8
  %19 = load i32, ptr %4, align 4
  switch i32 %19, label %21 [
    i32 0, label %20
    i32 1, label %20
  ]

20:                                               ; preds = %18, %18
  ret void

21:                                               ; preds = %18
  unreachable
}

; Function Attrs: inlinehint nounwind uwtable
define internal i64 @Py_SIZE(ptr noundef %0) #3 {
  %2 = alloca ptr, align 8
  store ptr %0, ptr %2, align 8, !tbaa !3
  %3 = load ptr, ptr %2, align 8, !tbaa !3
  %4 = getelementptr inbounds nuw %struct.PyVarObject, ptr %3, i32 0, i32 1
  %5 = load i64, ptr %4, align 8, !tbaa !114
  ret i64 %5
}

; Function Attrs: alwaysinline nounwind uwtable
define internal void @Py_DECREF(ptr noundef %0) #4 {
  %2 = alloca ptr, align 8
  store ptr %0, ptr %2, align 8, !tbaa !3
  %3 = load ptr, ptr %2, align 8, !tbaa !3
  %4 = call i32 @_Py_IsImmortal(ptr noundef %3)
  %5 = icmp ne i32 %4, 0
  br i1 %5, label %6, label %7

6:                                                ; preds = %1
  br label %16

7:                                                ; preds = %1
  %8 = load ptr, ptr %2, align 8, !tbaa !3
  %9 = getelementptr inbounds nuw %struct._object, ptr %8, i32 0, i32 0
  %10 = getelementptr inbounds nuw %struct.anon, ptr %9, i32 0, i32 0
  %11 = load i32, ptr %10, align 8, !tbaa !32
  %12 = add i32 %11, -1
  store i32 %12, ptr %10, align 8, !tbaa !32
  %13 = icmp eq i32 %12, 0
  br i1 %13, label %14, label %16

14:                                               ; preds = %7
  %15 = load ptr, ptr %2, align 8, !tbaa !3
  call void @_Py_Dealloc(ptr noundef %15)
  br label %16

16:                                               ; preds = %6, %14, %7
  ret void
}

; Function Attrs: inlinehint nounwind uwtable
define internal void @PyList_SET_ITEM(ptr noundef %0, i64 noundef %1, ptr noundef %2) #3 {
  %4 = alloca ptr, align 8
  %5 = alloca i64, align 8
  %6 = alloca ptr, align 8
  %7 = alloca ptr, align 8
  store ptr %0, ptr %4, align 8, !tbaa !3
  store i64 %1, ptr %5, align 8, !tbaa !30
  store ptr %2, ptr %6, align 8, !tbaa !3
  call void @llvm.lifetime.start.p0(i64 8, ptr %7) #8
  %8 = load ptr, ptr %4, align 8, !tbaa !3
  store ptr %8, ptr %7, align 8, !tbaa !8
  %9 = load ptr, ptr %6, align 8, !tbaa !3
  %10 = load ptr, ptr %7, align 8, !tbaa !8
  %11 = getelementptr inbounds nuw %struct.PyListObject, ptr %10, i32 0, i32 1
  %12 = load ptr, ptr %11, align 8, !tbaa !112
  %13 = load i64, ptr %5, align 8, !tbaa !30
  %14 = getelementptr ptr, ptr %12, i64 %13
  store ptr %9, ptr %14, align 8, !tbaa !3
  call void @llvm.lifetime.end.p0(i64 8, ptr %7) #8
  ret void
}

; Function Attrs: inlinehint nounwind uwtable
define internal ptr @_Py_NewRef(ptr noundef %0) #3 {
  %2 = alloca ptr, align 8
  store ptr %0, ptr %2, align 8, !tbaa !3
  %3 = load ptr, ptr %2, align 8, !tbaa !3
  call void @Py_INCREF(ptr noundef %3)
  %4 = load ptr, ptr %2, align 8, !tbaa !3
  ret ptr %4
}

; Function Attrs: inlinehint nounwind uwtable
define internal i64 @PyList_GET_SIZE(ptr noundef %0) #3 {
  %2 = alloca ptr, align 8
  %3 = alloca ptr, align 8
  store ptr %0, ptr %2, align 8, !tbaa !3
  call void @llvm.lifetime.start.p0(i64 8, ptr %3) #8
  %4 = load ptr, ptr %2, align 8, !tbaa !3
  store ptr %4, ptr %3, align 8, !tbaa !8
  %5 = load ptr, ptr %3, align 8, !tbaa !8
  %6 = call i64 @Py_SIZE(ptr noundef %5)
  call void @llvm.lifetime.end.p0(i64 8, ptr %3) #8
  ret i64 %6
}

; Function Attrs: nounwind uwtable
define internal ptr @_elementtree_Element___getstate___impl(ptr noundef %0) #0 {
  %2 = alloca ptr, align 8
  %3 = alloca ptr, align 8
  %4 = alloca i64, align 8
  %5 = alloca ptr, align 8
  %6 = alloca ptr, align 8
  %7 = alloca i32, align 4
  %8 = alloca ptr, align 8
  store ptr %0, ptr %3, align 8, !tbaa !8
  call void @llvm.lifetime.start.p0(i64 8, ptr %4) #8
  call void @llvm.lifetime.start.p0(i64 8, ptr %5) #8
  call void @llvm.lifetime.start.p0(i64 8, ptr %6) #8
  %9 = load ptr, ptr %3, align 8, !tbaa !8
  %10 = getelementptr inbounds nuw %struct.ElementObject, ptr %9, i32 0, i32 4
  %11 = load ptr, ptr %10, align 8, !tbaa !42
  %12 = icmp ne ptr %11, null
  br i1 %12, label %13, label %19

13:                                               ; preds = %1
  %14 = load ptr, ptr %3, align 8, !tbaa !8
  %15 = getelementptr inbounds nuw %struct.ElementObject, ptr %14, i32 0, i32 4
  %16 = load ptr, ptr %15, align 8, !tbaa !42
  %17 = getelementptr inbounds nuw %struct.ElementObjectExtra, ptr %16, i32 0, i32 1
  %18 = load i64, ptr %17, align 8, !tbaa !50
  br label %20

19:                                               ; preds = %1
  br label %20

20:                                               ; preds = %19, %13
  %21 = phi i64 [ %18, %13 ], [ 0, %19 ]
  %22 = call ptr @PyList_New(i64 noundef %21)
  store ptr %22, ptr %5, align 8, !tbaa !3
  %23 = load ptr, ptr %5, align 8, !tbaa !3
  %24 = icmp ne ptr %23, null
  br i1 %24, label %26, label %25

25:                                               ; preds = %20
  store ptr null, ptr %2, align 8
  store i32 1, ptr %7, align 4
  br label %93

26:                                               ; preds = %20
  store i64 0, ptr %4, align 8, !tbaa !30
  br label %27

27:                                               ; preds = %45, %26
  %28 = load i64, ptr %4, align 8, !tbaa !30
  %29 = load ptr, ptr %5, align 8, !tbaa !3
  %30 = call i64 @PyList_GET_SIZE(ptr noundef %29)
  %31 = icmp slt i64 %28, %30
  br i1 %31, label %32, label %48

32:                                               ; preds = %27
  call void @llvm.lifetime.start.p0(i64 8, ptr %8) #8
  %33 = load ptr, ptr %3, align 8, !tbaa !8
  %34 = getelementptr inbounds nuw %struct.ElementObject, ptr %33, i32 0, i32 4
  %35 = load ptr, ptr %34, align 8, !tbaa !42
  %36 = getelementptr inbounds nuw %struct.ElementObjectExtra, ptr %35, i32 0, i32 3
  %37 = load ptr, ptr %36, align 8, !tbaa !48
  %38 = load i64, ptr %4, align 8, !tbaa !30
  %39 = getelementptr ptr, ptr %37, i64 %38
  %40 = load ptr, ptr %39, align 8, !tbaa !3
  %41 = call ptr @_Py_NewRef(ptr noundef %40)
  store ptr %41, ptr %8, align 8, !tbaa !3
  %42 = load ptr, ptr %5, align 8, !tbaa !3
  %43 = load i64, ptr %4, align 8, !tbaa !30
  %44 = load ptr, ptr %8, align 8, !tbaa !3
  call void @PyList_SET_ITEM(ptr noundef %42, i64 noundef %43, ptr noundef %44)
  call void @llvm.lifetime.end.p0(i64 8, ptr %8) #8
  br label %45

45:                                               ; preds = %32
  %46 = load i64, ptr %4, align 8, !tbaa !30
  %47 = add i64 %46, 1
  store i64 %47, ptr %4, align 8, !tbaa !30
  br label %27, !llvm.loop !155

48:                                               ; preds = %27
  %49 = load ptr, ptr %3, align 8, !tbaa !8
  %50 = getelementptr inbounds nuw %struct.ElementObject, ptr %49, i32 0, i32 4
  %51 = load ptr, ptr %50, align 8, !tbaa !42
  %52 = icmp ne ptr %51, null
  br i1 %52, label %53, label %67

53:                                               ; preds = %48
  %54 = load ptr, ptr %3, align 8, !tbaa !8
  %55 = getelementptr inbounds nuw %struct.ElementObject, ptr %54, i32 0, i32 4
  %56 = load ptr, ptr %55, align 8, !tbaa !42
  %57 = getelementptr inbounds nuw %struct.ElementObjectExtra, ptr %56, i32 0, i32 0
  %58 = load ptr, ptr %57, align 8, !tbaa !53
  %59 = icmp ne ptr %58, null
  br i1 %59, label %60, label %67

60:                                               ; preds = %53
  %61 = load ptr, ptr %3, align 8, !tbaa !8
  %62 = getelementptr inbounds nuw %struct.ElementObject, ptr %61, i32 0, i32 4
  %63 = load ptr, ptr %62, align 8, !tbaa !42
  %64 = getelementptr inbounds nuw %struct.ElementObjectExtra, ptr %63, i32 0, i32 0
  %65 = load ptr, ptr %64, align 8, !tbaa !53
  %66 = call ptr @_Py_NewRef(ptr noundef %65)
  store ptr %66, ptr %6, align 8, !tbaa !3
  br label %74

67:                                               ; preds = %53, %48
  %68 = call ptr @PyDict_New()
  store ptr %68, ptr %6, align 8, !tbaa !3
  %69 = load ptr, ptr %6, align 8, !tbaa !3
  %70 = icmp ne ptr %69, null
  br i1 %70, label %73, label %71

71:                                               ; preds = %67
  %72 = load ptr, ptr %5, align 8, !tbaa !3
  call void @Py_DECREF(ptr noundef %72)
  store ptr null, ptr %2, align 8
  store i32 1, ptr %7, align 4
  br label %93

73:                                               ; preds = %67
  br label %74

74:                                               ; preds = %73, %60
  %75 = load ptr, ptr %3, align 8, !tbaa !8
  %76 = getelementptr inbounds nuw %struct.ElementObject, ptr %75, i32 0, i32 1
  %77 = load ptr, ptr %76, align 8, !tbaa !44
  %78 = load ptr, ptr %5, align 8, !tbaa !3
  %79 = load ptr, ptr %6, align 8, !tbaa !3
  %80 = load ptr, ptr %3, align 8, !tbaa !8
  %81 = getelementptr inbounds nuw %struct.ElementObject, ptr %80, i32 0, i32 2
  %82 = load ptr, ptr %81, align 8, !tbaa !45
  %83 = ptrtoint ptr %82 to i64
  %84 = and i64 %83, -2
  %85 = inttoptr i64 %84 to ptr
  %86 = load ptr, ptr %3, align 8, !tbaa !8
  %87 = getelementptr inbounds nuw %struct.ElementObject, ptr %86, i32 0, i32 3
  %88 = load ptr, ptr %87, align 8, !tbaa !46
  %89 = ptrtoint ptr %88 to i64
  %90 = and i64 %89, -2
  %91 = inttoptr i64 %90 to ptr
  %92 = call ptr (ptr, ...) @Py_BuildValue(ptr noundef @.str.88, ptr noundef @.str.84, ptr noundef %77, ptr noundef @.str.89, ptr noundef %78, ptr noundef @.str.5, ptr noundef %79, ptr noundef @.str.25, ptr noundef %85, ptr noundef @.str.24, ptr noundef %91)
  store ptr %92, ptr %2, align 8
  store i32 1, ptr %7, align 4
  br label %93

93:                                               ; preds = %74, %71, %25
  call void @llvm.lifetime.end.p0(i64 8, ptr %6) #8
  call void @llvm.lifetime.end.p0(i64 8, ptr %5) #8
  call void @llvm.lifetime.end.p0(i64 8, ptr %4) #8
  %94 = load ptr, ptr %2, align 8
  ret ptr %94
}

; Function Attrs: nounwind uwtable
define internal ptr @_elementtree_Element___getstate__(ptr noundef %0, ptr noundef %1) #0 {
  %3 = alloca ptr, align 8
  %4 = alloca ptr, align 8
  store ptr %0, ptr %3, align 8, !tbaa !3
  store ptr %1, ptr %4, align 8, !tbaa !3
  %5 = load ptr, ptr %3, align 8, !tbaa !3
  %6 = call ptr @_elementtree_Element___getstate___impl(ptr noundef %5)
  ret ptr %6
}