; Function Attrs: nounwind uwtable
define internal ptr @_elementtree_Element___getstate__(ptr noundef readonly captures(none) %0, ptr readnone captures(none) %1) #0 {
  %3 = getelementptr inbounds nuw i8, ptr %0, i64 40
  %4 = load ptr, ptr %3, align 8, !tbaa !37
  %.not.i = icmp eq ptr %4, null
  br i1 %.not.i, label %8, label %5

5:                                                ; preds = %2
  %6 = getelementptr inbounds nuw i8, ptr %4, i64 8
  %7 = load i64, ptr %6, align 8, !tbaa !42
  br label %8

8:                                                ; preds = %5, %2
  %9 = phi i64 [ %7, %5 ], [ 0, %2 ]
  %10 = tail call ptr @PyList_New(i64 noundef %9) #12
  %.not28.i = icmp eq ptr %10, null
  br i1 %.not28.i, label %_elementtree_Element___getstate___impl.exit, label %.preheader.i

.preheader.i:                                     ; preds = %8
  %11 = getelementptr i8, ptr %10, i64 16
  %.val3234.i = load i64, ptr %11, align 8, !tbaa !101
  %12 = icmp sgt i64 %.val3234.i, 0
  br i1 %12, label %.lr.ph.i, label %._crit_edge.i

.lr.ph.i:                                         ; preds = %.preheader.i
  %13 = getelementptr i8, ptr %10, i64 24
  br label %14

14:                                               ; preds = %_Py_NewRef.exit.i, %.lr.ph.i
  %.val3236.i = phi i64 [ %.val3234.i, %.lr.ph.i ], [ %.val32.i, %_Py_NewRef.exit.i ]
  %.02235.i = phi i64 [ 0, %.lr.ph.i ], [ %25, %_Py_NewRef.exit.i ]
  %15 = load ptr, ptr %3, align 8, !tbaa !37
  %16 = getelementptr inbounds nuw i8, ptr %15, i64 24
  %17 = load ptr, ptr %16, align 8, !tbaa !39
  %18 = getelementptr ptr, ptr %17, i64 %.02235.i
  %19 = load ptr, ptr %18, align 8, !tbaa !20
  %20 = load i32, ptr %19, align 8, !tbaa !21
  %21 = icmp slt i32 %20, 0
  br i1 %21, label %_Py_NewRef.exit.i, label %22

22:                                               ; preds = %14
  %23 = add nuw i32 %20, 1
  store i32 %23, ptr %19, align 8, !tbaa !21
  %.val32.pre.i = load i64, ptr %11, align 8, !tbaa !101
  br label %_Py_NewRef.exit.i

_Py_NewRef.exit.i:                                ; preds = %22, %14
  %.val32.i = phi i64 [ %.val3236.i, %14 ], [ %.val32.pre.i, %22 ]
  %.val.i = load ptr, ptr %13, align 8, !tbaa !107
  %24 = getelementptr ptr, ptr %.val.i, i64 %.02235.i
  store ptr %19, ptr %24, align 8, !tbaa !20
  %25 = add nuw nsw i64 %.02235.i, 1
  %26 = icmp slt i64 %25, %.val32.i
  br i1 %26, label %14, label %._crit_edge.i, !llvm.loop !145

._crit_edge.i:                                    ; preds = %_Py_NewRef.exit.i, %.preheader.i
  %27 = load ptr, ptr %3, align 8, !tbaa !37
  %.not29.i = icmp eq ptr %27, null
  br i1 %.not29.i, label %35, label %28

28:                                               ; preds = %._crit_edge.i
  %29 = load ptr, ptr %27, align 8, !tbaa !52
  %.not30.i = icmp eq ptr %29, null
  br i1 %.not30.i, label %35, label %30

30:                                               ; preds = %28
  %31 = load i32, ptr %29, align 8, !tbaa !21
  %32 = icmp slt i32 %31, 0
  br i1 %32, label %_Py_NewRef.exit33.i, label %33

33:                                               ; preds = %30
  %34 = add nuw i32 %31, 1
  store i32 %34, ptr %29, align 8, !tbaa !21
  br label %_Py_NewRef.exit33.i

35:                                               ; preds = %28, %._crit_edge.i
  %36 = tail call ptr @PyDict_New() #12
  %.not31.i = icmp eq ptr %36, null
  br i1 %.not31.i, label %37, label %_Py_NewRef.exit33.i

37:                                               ; preds = %35
  %38 = load i32, ptr %10, align 8, !tbaa !21
  %.not.i.i = icmp sgt i32 %38, -1
  br i1 %.not.i.i, label %39, label %_elementtree_Element___getstate___impl.exit

39:                                               ; preds = %37
  %40 = add nsw i32 %38, -1
  store i32 %40, ptr %10, align 8, !tbaa !21
  %41 = icmp eq i32 %40, 0
  br i1 %41, label %42, label %_elementtree_Element___getstate___impl.exit

42:                                               ; preds = %39
  tail call void @_Py_Dealloc(ptr noundef nonnull %10) #12
  br label %_elementtree_Element___getstate___impl.exit

_Py_NewRef.exit33.i:                              ; preds = %35, %33, %30
  %.021.i = phi ptr [ %36, %35 ], [ %29, %30 ], [ %29, %33 ]
  %43 = getelementptr inbounds nuw i8, ptr %0, i64 16
  %44 = load ptr, ptr %43, align 8, !tbaa !44
  %45 = getelementptr inbounds nuw i8, ptr %0, i64 24
  %46 = load ptr, ptr %45, align 8, !tbaa !45
  %47 = ptrtoint ptr %46 to i64
  %48 = and i64 %47, -2
  %49 = inttoptr i64 %48 to ptr
  %50 = getelementptr inbounds nuw i8, ptr %0, i64 32
  %51 = load ptr, ptr %50, align 8, !tbaa !46
  %52 = ptrtoint ptr %51 to i64
  %53 = and i64 %52, -2
  %54 = inttoptr i64 %53 to ptr
  %55 = tail call ptr (ptr, ...) @Py_BuildValue(ptr noundef nonnull @.str.88, ptr noundef nonnull @.str.84, ptr noundef %44, ptr noundef nonnull @.str.89, ptr noundef nonnull %10, ptr noundef nonnull @.str.5, ptr noundef nonnull %.021.i, ptr noundef nonnull @.str.25, ptr noundef %49, ptr noundef nonnull @.str.24, ptr noundef %54) #12
  br label %_elementtree_Element___getstate___impl.exit

_elementtree_Element___getstate___impl.exit:      ; preds = %8, %37, %39, %42, %_Py_NewRef.exit33.i
  %.0.i = phi ptr [ %55, %_Py_NewRef.exit33.i ], [ null, %8 ], [ null, %37 ], [ null, %39 ], [ null, %42 ]
  ret ptr %.0.i
}